; Function Attrs: mustprogress uwtable
define void @_ZN7rocksdb22FullFilterBlockBuilder14AddWithPrevKeyERKNS_5SliceES3_(ptr noundef nonnull readonly align 8 captures(none) dereferenceable(40) %0, ptr noundef nonnull align 8 dereferenceable(16) %1, ptr nonnull readnone align 8 captures(none) %2) unnamed_addr #4 align 2 {
  %4 = alloca %"class.rocksdb::Slice", align 8
  %5 = getelementptr inbounds nuw i8, ptr %0, i64 16
  %6 = load ptr, ptr %5, align 8, !tbaa !13
  %.not.i = icmp eq ptr %6, null
  br i1 %.not.i, label %34, label %7

7:                                                ; preds = %3
  %8 = load ptr, ptr %6, align 8, !tbaa !11
  %9 = getelementptr inbounds nuw i8, ptr %8, i64 160
  %10 = load ptr, ptr %9, align 8
  %11 = tail call noundef zeroext i1 %10(ptr noundef nonnull align 8 dereferenceable(32) %6, ptr noundef nonnull align 8 dereferenceable(16) %1)
  br i1 %11, label %12, label %34

12:                                               ; preds = %7
  call void @llvm.lifetime.start.p0(i64 16, ptr nonnull %4) #22
  %13 = load ptr, ptr %5, align 8, !tbaa !13
  %14 = load ptr, ptr %13, align 8, !tbaa !11
  %15 = getelementptr inbounds nuw i8, ptr %14, i64 152
  %16 = load ptr, ptr %15, align 8
  %17 = tail call { ptr, i64 } %16(ptr noundef nonnull align 8 dereferenceable(32) %13, ptr noundef nonnull align 8 dereferenceable(16) %1)
  %18 = extractvalue { ptr, i64 } %17, 0
  store ptr %18, ptr %4, align 8
  %19 = getelementptr inbounds nuw i8, ptr %4, i64 8
  %20 = extractvalue { ptr, i64 } %17, 1
  store i64 %20, ptr %19, align 8
  %21 = getelementptr inbounds nuw i8, ptr %0, i64 24
  %22 = load i8, ptr %21, align 8, !tbaa !32, !range !35, !noundef !36
  %23 = trunc nuw i8 %22 to i1
  %24 = getelementptr inbounds nuw i8, ptr %0, i64 8
  %25 = load ptr, ptr %24, align 8, !tbaa !34
  %26 = load ptr, ptr %25, align 8, !tbaa !11
  br i1 %23, label %27, label %30

27:                                               ; preds = %12
  %28 = getelementptr inbounds nuw i8, ptr %26, i64 24
  %29 = load ptr, ptr %28, align 8
  call void %29(ptr noundef nonnull align 8 dereferenceable(8) %25, ptr noundef nonnull align 8 dereferenceable(16) %1, ptr noundef nonnull align 8 dereferenceable(16) %4)
  br label %33

30:                                               ; preds = %12
  %31 = getelementptr inbounds nuw i8, ptr %26, i64 16
  %32 = load ptr, ptr %31, align 8
  call void %32(ptr noundef nonnull align 8 dereferenceable(8) %25, ptr noundef nonnull align 8 dereferenceable(16) %4)
  br label %33

33:                                               ; preds = %30, %27
  call void @llvm.lifetime.end.p0(i64 16, ptr nonnull %4) #22
  br label %_ZN7rocksdb22FullFilterBlockBuilder3AddERKNS_5SliceE.exit

34:                                               ; preds = %7, %3
  %35 = getelementptr inbounds nuw i8, ptr %0, i64 24
  %36 = load i8, ptr %35, align 8, !tbaa !32, !range !35, !noundef !36
  %37 = trunc nuw i8 %36 to i1
  br i1 %37, label %38, label %_ZN7rocksdb22FullFilterBlockBuilder3AddERKNS_5SliceE.exit

38:                                               ; preds = %34
  %39 = getelementptr inbounds nuw i8, ptr %0, i64 8
  %40 = load ptr, ptr %39, align 8, !tbaa !34
  %41 = load ptr, ptr %40, align 8, !tbaa !11
  %42 = getelementptr inbounds nuw i8, ptr %41, i64 16
  %43 = load ptr, ptr %42, align 8
  tail call void %43(ptr noundef nonnull align 8 dereferenceable(8) %40, ptr noundef nonnull align 8 dereferenceable(16) %1)
  br label %_ZN7rocksdb22FullFilterBlockBuilder3AddERKNS_5SliceE.exit

_ZN7rocksdb22FullFilterBlockBuilder3AddERKNS_5SliceE.exit: ; preds = %33, %34, %38
  ret void
}